; Function Attrs: nofree nosync nounwind memory(readwrite, inaccessiblemem: none) uwtable
define i32 @Rwr_ManNodeVolume(ptr noundef captures(none) %0, ptr noundef captures(none) %1, ptr noundef captures(none) %2) local_unnamed_addr #3 {
  %4 = alloca i32, align 4
  call void @llvm.lifetime.start.p0(i64 4, ptr nonnull %4) #10
  store i32 0, ptr %4, align 4, !tbaa !26
  %5 = getelementptr inbounds nuw i8, ptr %0, i64 96
  %6 = load i32, ptr %5, align 8, !tbaa !27
  %7 = add nsw i32 %6, 1
  store i32 %7, ptr %5, align 8, !tbaa !27
  %8 = icmp ult i32 %6, -1879048193
  br i1 %8, label %Rwr_ManIncTravId.exit, label %.preheader.i

.preheader.i:                                     ; preds = %3
  %9 = getelementptr inbounds nuw i8, ptr %0, i64 64
  %10 = load ptr, ptr %9, align 8, !tbaa !3
  %11 = getelementptr i8, ptr %10, i64 4
  %.val.i = load i32, ptr %11, align 4, !tbaa !18
  %12 = icmp sgt i32 %.val.i, 0
  br i1 %12, label %.lr.ph.i, label %.critedge.i

.lr.ph.i:                                         ; preds = %.preheader.i
  %13 = getelementptr i8, ptr %10, i64 8
  %.val7.i = load ptr, ptr %13, align 8, !tbaa !20
  %wide.trip.count.i = zext nneg i32 %.val.i to i64
  br label %14

14:                                               ; preds = %14, %.lr.ph.i
  %indvars.iv.i = phi i64 [ 0, %.lr.ph.i ], [ %indvars.iv.next.i, %14 ]
  %15 = getelementptr inbounds nuw ptr, ptr %.val7.i, i64 %indvars.iv.i
  %16 = load ptr, ptr %15, align 8, !tbaa !21
  %17 = getelementptr inbounds nuw i8, ptr %16, i64 4
  store i32 0, ptr %17, align 4, !tbaa !28
  %indvars.iv.next.i = add nuw nsw i64 %indvars.iv.i, 1
  %exitcond.not.i = icmp eq i64 %indvars.iv.next.i, %wide.trip.count.i
  br i1 %exitcond.not.i, label %.critedge.i, label %14, !llvm.loop !32

.critedge.i:                                      ; preds = %14, %.preheader.i
  store i32 1, ptr %5, align 8, !tbaa !27
  br label %Rwr_ManIncTravId.exit

Rwr_ManIncTravId.exit:                            ; preds = %3, %.critedge.i
  call void @Rwr_Trav_rec(ptr noundef nonnull %0, ptr noundef %1, ptr noundef nonnull %4)
  call void @Rwr_Trav_rec(ptr noundef nonnull %0, ptr noundef %2, ptr noundef nonnull %4)
  %18 = load i32, ptr %4, align 4, !tbaa !26
  call void @llvm.lifetime.end.p0(i64 4, ptr nonnull %4) #10
  ret i32 %18
}